; Function Attrs: nounwind sspstrong uwtable
define internal range(i64 5, 4) i64 @zlib_gunzip_run(i64 noundef %0) #0 {
  %2 = inttoptr i64 %0 to ptr
  tail call fastcc void @gzfile_read_header(ptr noundef %2)
  %3 = tail call fastcc i64 @zstream_detach_buffer(ptr noundef %2)
  %4 = icmp ne i64 %3, 4
  tail call void @llvm.assume(i1 %4)
  %5 = inttoptr i64 %3 to ptr
  %6 = getelementptr inbounds nuw i8, ptr %5, i64 16
  %7 = load i64, ptr %6, align 8, !tbaa !21
  %8 = getelementptr inbounds nuw i8, ptr %2, i64 208
  %9 = load i64, ptr %8, align 8, !tbaa !156
  %.not.i = icmp sgt i64 %7, %9
  br i1 %.not.i, label %12, label %10

10:                                               ; preds = %1
  %11 = sub nsw i64 %9, %7
  br label %gzfile_calc_crc.exit

12:                                               ; preds = %1
  %13 = getelementptr inbounds nuw i8, ptr %2, i64 192
  %14 = load i64, ptr %13, align 8, !tbaa !118
  %15 = and i64 %14, 4294967295
  %16 = load i64, ptr %5, align 8, !tbaa !16, !noalias !365
  %17 = and i64 %16, 8192
  %.not.i.i.i = icmp eq i64 %17, 0
  %18 = getelementptr inbounds nuw i8, ptr %5, i64 24
  br i1 %.not.i.i.i, label %RSTRING_PTR.exit.i, label %19

19:                                               ; preds = %12
  %.sroa.2.0.copyload.i.i = load ptr, ptr %18, align 8
  br label %RSTRING_PTR.exit.i

RSTRING_PTR.exit.i:                               ; preds = %19, %12
  %.sroa.2.0.i.i = phi ptr [ %.sroa.2.0.copyload.i.i, %19 ], [ %18, %12 ]
  %20 = getelementptr inbounds i8, ptr %.sroa.2.0.i.i, i64 %9
  %21 = sub nsw i64 %7, %9
  %22 = tail call i64 @crc32_z(i64 noundef %15, ptr noundef %20, i64 noundef %21) #18
  store i64 %22, ptr %13, align 8, !tbaa !118
  br label %gzfile_calc_crc.exit

gzfile_calc_crc.exit:                             ; preds = %10, %RSTRING_PTR.exit.i
  %storemerge.i = phi i64 [ 0, %RSTRING_PTR.exit.i ], [ %11, %10 ]
  store i64 %storemerge.i, ptr %8, align 8, !tbaa !156
  %23 = load i64, ptr %2, align 8, !tbaa !113
  %24 = and i64 %23, 4
  %.not = icmp eq i64 %24, 0
  br i1 %.not, label %25, label %27

25:                                               ; preds = %gzfile_calc_crc.exit
  %26 = load i64, ptr @cGzError, align 8, !tbaa !6
  tail call void (i64, ptr, ...) @rb_raise(i64 noundef %26, ptr noundef nonnull @.str.167) #19
  unreachable

27:                                               ; preds = %gzfile_calc_crc.exit
  %28 = getelementptr inbounds nuw i8, ptr %2, i64 16
  %29 = load i64, ptr %28, align 8, !tbaa !154
  %30 = icmp eq i64 %29, 4
  br i1 %30, label %31, label %33

31:                                               ; preds = %27
  %32 = load i64, ptr @cNoFooter, align 8, !tbaa !6
  tail call void (i64, ptr, ...) @rb_raise(i64 noundef %32, ptr noundef nonnull @.str.182) #19
  unreachable

33:                                               ; preds = %27
  tail call fastcc void @gzfile_check_footer(ptr noundef nonnull %2, i64 noundef 4)
  ret i64 %3
}